
generated/rv32ui-p-slli:     file format elf32-littleriscv


Disassembly of section .text.init:

00000000 <_start>:
   0:	00000d13          	li	s10,0
   4:	00000d93          	li	s11,0

00000008 <test_2>:
   8:	00100093          	li	ra,1
   c:	00009f13          	slli	t5,ra,0x0
  10:	00100e93          	li	t4,1
  14:	00200193          	li	gp,2
  18:	27df1a63          	bne	t5,t4,28c <fail>

0000001c <test_3>:
  1c:	00100093          	li	ra,1
  20:	00109f13          	slli	t5,ra,0x1
  24:	00200e93          	li	t4,2
  28:	00300193          	li	gp,3
  2c:	27df1063          	bne	t5,t4,28c <fail>

00000030 <test_4>:
  30:	00100093          	li	ra,1
  34:	00709f13          	slli	t5,ra,0x7
  38:	08000e93          	li	t4,128
  3c:	00400193          	li	gp,4
  40:	25df1663          	bne	t5,t4,28c <fail>

00000044 <test_5>:
  44:	00100093          	li	ra,1
  48:	00e09f13          	slli	t5,ra,0xe
  4c:	00004eb7          	lui	t4,0x4
  50:	00500193          	li	gp,5
  54:	23df1c63          	bne	t5,t4,28c <fail>

00000058 <test_6>:
  58:	00100093          	li	ra,1
  5c:	01f09f13          	slli	t5,ra,0x1f
  60:	80000eb7          	lui	t4,0x80000
  64:	00600193          	li	gp,6
  68:	23df1263          	bne	t5,t4,28c <fail>

0000006c <test_7>:
  6c:	fff00093          	li	ra,-1
  70:	00009f13          	slli	t5,ra,0x0
  74:	fff00e93          	li	t4,-1
  78:	00700193          	li	gp,7
  7c:	21df1863          	bne	t5,t4,28c <fail>

00000080 <test_8>:
  80:	fff00093          	li	ra,-1
  84:	00109f13          	slli	t5,ra,0x1
  88:	ffe00e93          	li	t4,-2
  8c:	00800193          	li	gp,8
  90:	1fdf1e63          	bne	t5,t4,28c <fail>

00000094 <test_9>:
  94:	fff00093          	li	ra,-1
  98:	00709f13          	slli	t5,ra,0x7
  9c:	f8000e93          	li	t4,-128
  a0:	00900193          	li	gp,9
  a4:	1fdf1463          	bne	t5,t4,28c <fail>

000000a8 <test_10>:
  a8:	fff00093          	li	ra,-1
  ac:	00e09f13          	slli	t5,ra,0xe
  b0:	ffffceb7          	lui	t4,0xffffc
  b4:	00a00193          	li	gp,10
  b8:	1ddf1a63          	bne	t5,t4,28c <fail>

000000bc <test_11>:
  bc:	fff00093          	li	ra,-1
  c0:	01f09f13          	slli	t5,ra,0x1f
  c4:	80000eb7          	lui	t4,0x80000
  c8:	00b00193          	li	gp,11
  cc:	1ddf1063          	bne	t5,t4,28c <fail>

000000d0 <test_12>:
  d0:	212120b7          	lui	ra,0x21212
  d4:	12108093          	addi	ra,ra,289 # 21212121 <begin_signature+0x21211121>
  d8:	00009f13          	slli	t5,ra,0x0
  dc:	21212eb7          	lui	t4,0x21212
  e0:	121e8e93          	addi	t4,t4,289 # 21212121 <begin_signature+0x21211121>
  e4:	00c00193          	li	gp,12
  e8:	1bdf1263          	bne	t5,t4,28c <fail>

000000ec <test_13>:
  ec:	212120b7          	lui	ra,0x21212
  f0:	12108093          	addi	ra,ra,289 # 21212121 <begin_signature+0x21211121>
  f4:	00109f13          	slli	t5,ra,0x1
  f8:	42424eb7          	lui	t4,0x42424
  fc:	242e8e93          	addi	t4,t4,578 # 42424242 <begin_signature+0x42423242>
 100:	00d00193          	li	gp,13
 104:	19df1463          	bne	t5,t4,28c <fail>

00000108 <test_14>:
 108:	212120b7          	lui	ra,0x21212
 10c:	12108093          	addi	ra,ra,289 # 21212121 <begin_signature+0x21211121>
 110:	00709f13          	slli	t5,ra,0x7
 114:	90909eb7          	lui	t4,0x90909
 118:	080e8e93          	addi	t4,t4,128 # 90909080 <begin_signature+0x90908080>
 11c:	00e00193          	li	gp,14
 120:	17df1663          	bne	t5,t4,28c <fail>

00000124 <test_15>:
 124:	212120b7          	lui	ra,0x21212
 128:	12108093          	addi	ra,ra,289 # 21212121 <begin_signature+0x21211121>
 12c:	00e09f13          	slli	t5,ra,0xe
 130:	48484eb7          	lui	t4,0x48484
 134:	00f00193          	li	gp,15
 138:	15df1a63          	bne	t5,t4,28c <fail>

0000013c <test_16>:
 13c:	212120b7          	lui	ra,0x21212
 140:	12108093          	addi	ra,ra,289 # 21212121 <begin_signature+0x21211121>
 144:	01f09f13          	slli	t5,ra,0x1f
 148:	80000eb7          	lui	t4,0x80000
 14c:	01000193          	li	gp,16
 150:	13df1e63          	bne	t5,t4,28c <fail>

00000154 <test_17>:
 154:	00100093          	li	ra,1
 158:	00709093          	slli	ra,ra,0x7
 15c:	08000e93          	li	t4,128
 160:	01100193          	li	gp,17
 164:	13d09463          	bne	ra,t4,28c <fail>

00000168 <test_18>:
 168:	00000213          	li	tp,0
 16c:	00100093          	li	ra,1
 170:	00709f13          	slli	t5,ra,0x7
 174:	000f0313          	mv	t1,t5
 178:	00120213          	addi	tp,tp,1 # 1 <_start+0x1>
 17c:	00200293          	li	t0,2
 180:	fe5216e3          	bne	tp,t0,16c <test_18+0x4>
 184:	08000e93          	li	t4,128
 188:	01200193          	li	gp,18
 18c:	11d31063          	bne	t1,t4,28c <fail>

00000190 <test_19>:
 190:	00000213          	li	tp,0
 194:	00100093          	li	ra,1
 198:	00e09f13          	slli	t5,ra,0xe
 19c:	00000013          	nop
 1a0:	000f0313          	mv	t1,t5
 1a4:	00120213          	addi	tp,tp,1 # 1 <_start+0x1>
 1a8:	00200293          	li	t0,2
 1ac:	fe5214e3          	bne	tp,t0,194 <test_19+0x4>
 1b0:	00004eb7          	lui	t4,0x4
 1b4:	01300193          	li	gp,19
 1b8:	0dd31a63          	bne	t1,t4,28c <fail>

000001bc <test_20>:
 1bc:	00000213          	li	tp,0
 1c0:	00100093          	li	ra,1
 1c4:	01f09f13          	slli	t5,ra,0x1f
 1c8:	00000013          	nop
 1cc:	00000013          	nop
 1d0:	000f0313          	mv	t1,t5
 1d4:	00120213          	addi	tp,tp,1 # 1 <_start+0x1>
 1d8:	00200293          	li	t0,2
 1dc:	fe5212e3          	bne	tp,t0,1c0 <test_20+0x4>
 1e0:	80000eb7          	lui	t4,0x80000
 1e4:	01400193          	li	gp,20
 1e8:	0bd31263          	bne	t1,t4,28c <fail>

000001ec <test_21>:
 1ec:	00000213          	li	tp,0
 1f0:	00100093          	li	ra,1
 1f4:	00709f13          	slli	t5,ra,0x7
 1f8:	00120213          	addi	tp,tp,1 # 1 <_start+0x1>
 1fc:	00200293          	li	t0,2
 200:	fe5218e3          	bne	tp,t0,1f0 <test_21+0x4>
 204:	08000e93          	li	t4,128
 208:	01500193          	li	gp,21
 20c:	09df1063          	bne	t5,t4,28c <fail>

00000210 <test_22>:
 210:	00000213          	li	tp,0
 214:	00100093          	li	ra,1
 218:	00000013          	nop
 21c:	00e09f13          	slli	t5,ra,0xe
 220:	00120213          	addi	tp,tp,1 # 1 <_start+0x1>
 224:	00200293          	li	t0,2
 228:	fe5216e3          	bne	tp,t0,214 <test_22+0x4>
 22c:	00004eb7          	lui	t4,0x4
 230:	01600193          	li	gp,22
 234:	05df1c63          	bne	t5,t4,28c <fail>

00000238 <test_23>:
 238:	00000213          	li	tp,0
 23c:	00100093          	li	ra,1
 240:	00000013          	nop
 244:	00000013          	nop
 248:	01f09f13          	slli	t5,ra,0x1f
 24c:	00120213          	addi	tp,tp,1 # 1 <_start+0x1>
 250:	00200293          	li	t0,2
 254:	fe5214e3          	bne	tp,t0,23c <test_23+0x4>
 258:	80000eb7          	lui	t4,0x80000
 25c:	01700193          	li	gp,23
 260:	03df1663          	bne	t5,t4,28c <fail>

00000264 <test_24>:
 264:	01f01093          	slli	ra,zero,0x1f
 268:	00000e93          	li	t4,0
 26c:	01800193          	li	gp,24
 270:	01d09e63          	bne	ra,t4,28c <fail>

00000274 <test_25>:
 274:	02100093          	li	ra,33
 278:	01409013          	slli	zero,ra,0x14
 27c:	00000e93          	li	t4,0
 280:	01900193          	li	gp,25
 284:	01d01463          	bne	zero,t4,28c <fail>
 288:	00301863          	bne	zero,gp,298 <pass>

0000028c <fail>:
 28c:	00100d13          	li	s10,1
 290:	00000d93          	li	s11,0

00000294 <loop_fail>:
 294:	0000006f          	j	294 <loop_fail>

00000298 <pass>:
 298:	00100d13          	li	s10,1
 29c:	00100d93          	li	s11,1

000002a0 <loop_pass>:
 2a0:	0000006f          	j	2a0 <loop_pass>
	...

Disassembly of section .tohost:

00000300 <tohost>:
	...

00000340 <fromhost>:
	...
