
generated/rv32ui-p-addi:     file format elf32-littleriscv


Disassembly of section .text.init:

00000000 <_start>:
   0:	00000d13          	li	s10,0
   4:	00000d93          	li	s11,0

00000008 <test_2>:
   8:	00000093          	li	ra,0
   c:	00008f13          	mv	t5,ra
  10:	00000e93          	li	t4,0
  14:	00200193          	li	gp,2
  18:	27df1c63          	bne	t5,t4,290 <fail>

0000001c <test_3>:
  1c:	00100093          	li	ra,1
  20:	00108f13          	addi	t5,ra,1
  24:	00200e93          	li	t4,2
  28:	00300193          	li	gp,3
  2c:	27df1263          	bne	t5,t4,290 <fail>

00000030 <test_4>:
  30:	00300093          	li	ra,3
  34:	00708f13          	addi	t5,ra,7
  38:	00a00e93          	li	t4,10
  3c:	00400193          	li	gp,4
  40:	25df1863          	bne	t5,t4,290 <fail>

00000044 <test_5>:
  44:	00000093          	li	ra,0
  48:	80008f13          	addi	t5,ra,-2048
  4c:	80000e93          	li	t4,-2048
  50:	00500193          	li	gp,5
  54:	23df1e63          	bne	t5,t4,290 <fail>

00000058 <test_6>:
  58:	800000b7          	lui	ra,0x80000
  5c:	00008f13          	mv	t5,ra
  60:	80000eb7          	lui	t4,0x80000
  64:	00600193          	li	gp,6
  68:	23df1463          	bne	t5,t4,290 <fail>

0000006c <test_7>:
  6c:	800000b7          	lui	ra,0x80000
  70:	80008f13          	addi	t5,ra,-2048 # 7ffff800 <begin_signature+0x7fffe800>
  74:	80000eb7          	lui	t4,0x80000
  78:	800e8e93          	addi	t4,t4,-2048 # 7ffff800 <begin_signature+0x7fffe800>
  7c:	00700193          	li	gp,7
  80:	21df1863          	bne	t5,t4,290 <fail>

00000084 <test_8>:
  84:	00000093          	li	ra,0
  88:	7ff08f13          	addi	t5,ra,2047
  8c:	7ff00e93          	li	t4,2047
  90:	00800193          	li	gp,8
  94:	1fdf1e63          	bne	t5,t4,290 <fail>

00000098 <test_9>:
  98:	800000b7          	lui	ra,0x80000
  9c:	fff08093          	addi	ra,ra,-1 # 7fffffff <begin_signature+0x7fffefff>
  a0:	00008f13          	mv	t5,ra
  a4:	80000eb7          	lui	t4,0x80000
  a8:	fffe8e93          	addi	t4,t4,-1 # 7fffffff <begin_signature+0x7fffefff>
  ac:	00900193          	li	gp,9
  b0:	1fdf1063          	bne	t5,t4,290 <fail>

000000b4 <test_10>:
  b4:	800000b7          	lui	ra,0x80000
  b8:	fff08093          	addi	ra,ra,-1 # 7fffffff <begin_signature+0x7fffefff>
  bc:	7ff08f13          	addi	t5,ra,2047
  c0:	80000eb7          	lui	t4,0x80000
  c4:	7fee8e93          	addi	t4,t4,2046 # 800007fe <begin_signature+0x7ffff7fe>
  c8:	00a00193          	li	gp,10
  cc:	1ddf1263          	bne	t5,t4,290 <fail>

000000d0 <test_11>:
  d0:	800000b7          	lui	ra,0x80000
  d4:	7ff08f13          	addi	t5,ra,2047 # 800007ff <begin_signature+0x7ffff7ff>
  d8:	80000eb7          	lui	t4,0x80000
  dc:	7ffe8e93          	addi	t4,t4,2047 # 800007ff <begin_signature+0x7ffff7ff>
  e0:	00b00193          	li	gp,11
  e4:	1bdf1663          	bne	t5,t4,290 <fail>

000000e8 <test_12>:
  e8:	800000b7          	lui	ra,0x80000
  ec:	fff08093          	addi	ra,ra,-1 # 7fffffff <begin_signature+0x7fffefff>
  f0:	80008f13          	addi	t5,ra,-2048
  f4:	7ffffeb7          	lui	t4,0x7ffff
  f8:	7ffe8e93          	addi	t4,t4,2047 # 7ffff7ff <begin_signature+0x7fffe7ff>
  fc:	00c00193          	li	gp,12
 100:	19df1863          	bne	t5,t4,290 <fail>

00000104 <test_13>:
 104:	00000093          	li	ra,0
 108:	fff08f13          	addi	t5,ra,-1
 10c:	fff00e93          	li	t4,-1
 110:	00d00193          	li	gp,13
 114:	17df1e63          	bne	t5,t4,290 <fail>

00000118 <test_14>:
 118:	fff00093          	li	ra,-1
 11c:	00108f13          	addi	t5,ra,1
 120:	00000e93          	li	t4,0
 124:	00e00193          	li	gp,14
 128:	17df1463          	bne	t5,t4,290 <fail>

0000012c <test_15>:
 12c:	fff00093          	li	ra,-1
 130:	fff08f13          	addi	t5,ra,-1
 134:	ffe00e93          	li	t4,-2
 138:	00f00193          	li	gp,15
 13c:	15df1a63          	bne	t5,t4,290 <fail>

00000140 <test_16>:
 140:	800000b7          	lui	ra,0x80000
 144:	fff08093          	addi	ra,ra,-1 # 7fffffff <begin_signature+0x7fffefff>
 148:	00108f13          	addi	t5,ra,1
 14c:	80000eb7          	lui	t4,0x80000
 150:	01000193          	li	gp,16
 154:	13df1e63          	bne	t5,t4,290 <fail>

00000158 <test_17>:
 158:	00d00093          	li	ra,13
 15c:	00b08093          	addi	ra,ra,11
 160:	01800e93          	li	t4,24
 164:	01100193          	li	gp,17
 168:	13d09463          	bne	ra,t4,290 <fail>

0000016c <test_18>:
 16c:	00000213          	li	tp,0
 170:	00d00093          	li	ra,13
 174:	00b08f13          	addi	t5,ra,11
 178:	000f0313          	mv	t1,t5
 17c:	00120213          	addi	tp,tp,1 # 1 <_start+0x1>
 180:	00200293          	li	t0,2
 184:	fe5216e3          	bne	tp,t0,170 <test_18+0x4>
 188:	01800e93          	li	t4,24
 18c:	01200193          	li	gp,18
 190:	11d31063          	bne	t1,t4,290 <fail>

00000194 <test_19>:
 194:	00000213          	li	tp,0
 198:	00d00093          	li	ra,13
 19c:	00a08f13          	addi	t5,ra,10
 1a0:	00000013          	nop
 1a4:	000f0313          	mv	t1,t5
 1a8:	00120213          	addi	tp,tp,1 # 1 <_start+0x1>
 1ac:	00200293          	li	t0,2
 1b0:	fe5214e3          	bne	tp,t0,198 <test_19+0x4>
 1b4:	01700e93          	li	t4,23
 1b8:	01300193          	li	gp,19
 1bc:	0dd31a63          	bne	t1,t4,290 <fail>

000001c0 <test_20>:
 1c0:	00000213          	li	tp,0
 1c4:	00d00093          	li	ra,13
 1c8:	00908f13          	addi	t5,ra,9
 1cc:	00000013          	nop
 1d0:	00000013          	nop
 1d4:	000f0313          	mv	t1,t5
 1d8:	00120213          	addi	tp,tp,1 # 1 <_start+0x1>
 1dc:	00200293          	li	t0,2
 1e0:	fe5212e3          	bne	tp,t0,1c4 <test_20+0x4>
 1e4:	01600e93          	li	t4,22
 1e8:	01400193          	li	gp,20
 1ec:	0bd31263          	bne	t1,t4,290 <fail>

000001f0 <test_21>:
 1f0:	00000213          	li	tp,0
 1f4:	00d00093          	li	ra,13
 1f8:	00b08f13          	addi	t5,ra,11
 1fc:	00120213          	addi	tp,tp,1 # 1 <_start+0x1>
 200:	00200293          	li	t0,2
 204:	fe5218e3          	bne	tp,t0,1f4 <test_21+0x4>
 208:	01800e93          	li	t4,24
 20c:	01500193          	li	gp,21
 210:	09df1063          	bne	t5,t4,290 <fail>

00000214 <test_22>:
 214:	00000213          	li	tp,0
 218:	00d00093          	li	ra,13
 21c:	00000013          	nop
 220:	00a08f13          	addi	t5,ra,10
 224:	00120213          	addi	tp,tp,1 # 1 <_start+0x1>
 228:	00200293          	li	t0,2
 22c:	fe5216e3          	bne	tp,t0,218 <test_22+0x4>
 230:	01700e93          	li	t4,23
 234:	01600193          	li	gp,22
 238:	05df1c63          	bne	t5,t4,290 <fail>

0000023c <test_23>:
 23c:	00000213          	li	tp,0
 240:	00d00093          	li	ra,13
 244:	00000013          	nop
 248:	00000013          	nop
 24c:	00908f13          	addi	t5,ra,9
 250:	00120213          	addi	tp,tp,1 # 1 <_start+0x1>
 254:	00200293          	li	t0,2
 258:	fe5214e3          	bne	tp,t0,240 <test_23+0x4>
 25c:	01600e93          	li	t4,22
 260:	01700193          	li	gp,23
 264:	03df1663          	bne	t5,t4,290 <fail>

00000268 <test_24>:
 268:	02000093          	li	ra,32
 26c:	02000e93          	li	t4,32
 270:	01800193          	li	gp,24
 274:	01d09e63          	bne	ra,t4,290 <fail>

00000278 <test_25>:
 278:	02100093          	li	ra,33
 27c:	03208013          	addi	zero,ra,50
 280:	00000e93          	li	t4,0
 284:	01900193          	li	gp,25
 288:	01d01463          	bne	zero,t4,290 <fail>
 28c:	00301863          	bne	zero,gp,29c <pass>

00000290 <fail>:
 290:	00100d13          	li	s10,1
 294:	00000d93          	li	s11,0

00000298 <loop_fail>:
 298:	0000006f          	j	298 <loop_fail>

0000029c <pass>:
 29c:	00100d13          	li	s10,1
 2a0:	00100d93          	li	s11,1

000002a4 <loop_pass>:
 2a4:	0000006f          	j	2a4 <loop_pass>
	...

Disassembly of section .tohost:

00000300 <tohost>:
	...

00000340 <fromhost>:
	...
