
simple:     file format elf32-littleriscv


Disassembly of section .init:

00000000 <_start>:
   0:	10001197          	auipc	gp,0x10001
   4:	80018193          	addi	gp,gp,-2048 # 10000800 <__global_pointer$>
   8:	10002117          	auipc	sp,0x10002
   c:	ff810113          	addi	sp,sp,-8 # 10002000 <_sp>
  10:	00000d13          	li	s10,0
  14:	00000d93          	li	s11,0
  18:	29400513          	li	a0,660
  1c:	10000597          	auipc	a1,0x10000
  20:	fe458593          	addi	a1,a1,-28 # 10000000 <_data>
  24:	80818613          	addi	a2,gp,-2040 # 10000008 <__bss_start>
  28:	00c5fc63          	bgeu	a1,a2,40 <_start+0x40>
  2c:	00052283          	lw	t0,0(a0)
  30:	0055a023          	sw	t0,0(a1)
  34:	00450513          	addi	a0,a0,4
  38:	00458593          	addi	a1,a1,4
  3c:	fec5e8e3          	bltu	a1,a2,2c <_start+0x2c>
  40:	80818513          	addi	a0,gp,-2040 # 10000008 <__bss_start>
  44:	80818593          	addi	a1,gp,-2040 # 10000008 <__bss_start>
  48:	00b57863          	bgeu	a0,a1,58 <_start+0x58>
  4c:	00052023          	sw	zero,0(a0)
  50:	00450513          	addi	a0,a0,4
  54:	feb56ce3          	bltu	a0,a1,4c <_start+0x4c>
  58:	214000ef          	jal	ra,26c <_init>
  5c:	10c000ef          	jal	ra,168 <main>
  60:	00100d13          	li	s10,1

00000064 <loop>:
  64:	0000006f          	j	64 <loop>

Disassembly of section .text:

00000068 <trap_entry>:
  68:	f8010113          	addi	sp,sp,-128
  6c:	00112223          	sw	ra,4(sp)
  70:	00212423          	sw	sp,8(sp)
  74:	00312623          	sw	gp,12(sp)
  78:	00412823          	sw	tp,16(sp)
  7c:	00512a23          	sw	t0,20(sp)
  80:	00612c23          	sw	t1,24(sp)
  84:	00712e23          	sw	t2,28(sp)
  88:	02812023          	sw	s0,32(sp)
  8c:	02912223          	sw	s1,36(sp)
  90:	02a12423          	sw	a0,40(sp)
  94:	02b12623          	sw	a1,44(sp)
  98:	02c12823          	sw	a2,48(sp)
  9c:	02d12a23          	sw	a3,52(sp)
  a0:	02e12c23          	sw	a4,56(sp)
  a4:	02f12e23          	sw	a5,60(sp)
  a8:	05012023          	sw	a6,64(sp)
  ac:	05112223          	sw	a7,68(sp)
  b0:	05212423          	sw	s2,72(sp)
  b4:	05312623          	sw	s3,76(sp)
  b8:	05412823          	sw	s4,80(sp)
  bc:	05512a23          	sw	s5,84(sp)
  c0:	05612c23          	sw	s6,88(sp)
  c4:	05712e23          	sw	s7,92(sp)
  c8:	07812023          	sw	s8,96(sp)
  cc:	07912223          	sw	s9,100(sp)
  d0:	07c12823          	sw	t3,112(sp)
  d4:	07d12a23          	sw	t4,116(sp)
  d8:	07e12c23          	sw	t5,120(sp)
  dc:	07f12e23          	sw	t6,124(sp)
  e0:	34202573          	csrr	a0,mcause
  e4:	158000ef          	jal	ra,23c <trap_handler>
  e8:	00412083          	lw	ra,4(sp)
  ec:	00812103          	lw	sp,8(sp)
  f0:	00c12183          	lw	gp,12(sp)
  f4:	01012203          	lw	tp,16(sp)
  f8:	01412283          	lw	t0,20(sp)
  fc:	01812303          	lw	t1,24(sp)
 100:	01c12383          	lw	t2,28(sp)
 104:	02012403          	lw	s0,32(sp)
 108:	02412483          	lw	s1,36(sp)
 10c:	02812503          	lw	a0,40(sp)
 110:	02c12583          	lw	a1,44(sp)
 114:	03012603          	lw	a2,48(sp)
 118:	03412683          	lw	a3,52(sp)
 11c:	03812703          	lw	a4,56(sp)
 120:	03c12783          	lw	a5,60(sp)
 124:	04012803          	lw	a6,64(sp)
 128:	04412883          	lw	a7,68(sp)
 12c:	04812903          	lw	s2,72(sp)
 130:	04c12983          	lw	s3,76(sp)
 134:	05012a03          	lw	s4,80(sp)
 138:	05412a83          	lw	s5,84(sp)
 13c:	05812b03          	lw	s6,88(sp)
 140:	05c12b83          	lw	s7,92(sp)
 144:	06012c03          	lw	s8,96(sp)
 148:	06412c83          	lw	s9,100(sp)
 14c:	07012e03          	lw	t3,112(sp)
 150:	07412e83          	lw	t4,116(sp)
 154:	07812f03          	lw	t5,120(sp)
 158:	07c12f83          	lw	t6,124(sp)
 15c:	08010113          	addi	sp,sp,128
 160:	30200073          	mret
 164:	0000006f          	j	164 <trap_entry+0xfc>

00000168 <main>:
 168:	fe010113          	addi	sp,sp,-32
 16c:	00812e23          	sw	s0,28(sp)
 170:	02010413          	addi	s0,sp,32
 174:	100007b7          	lui	a5,0x10000
 178:	00600713          	li	a4,6
 17c:	00e7a023          	sw	a4,0(a5) # 10000000 <_data>
 180:	fe042423          	sw	zero,-24(s0)
 184:	fe042623          	sw	zero,-20(s0)
 188:	0200006f          	j	1a8 <main+0x40>
 18c:	fe842703          	lw	a4,-24(s0)
 190:	fec42783          	lw	a5,-20(s0)
 194:	00f707b3          	add	a5,a4,a5
 198:	fef42423          	sw	a5,-24(s0)
 19c:	fec42783          	lw	a5,-20(s0)
 1a0:	00178793          	addi	a5,a5,1
 1a4:	fef42623          	sw	a5,-20(s0)
 1a8:	fec42703          	lw	a4,-20(s0)
 1ac:	06400793          	li	a5,100
 1b0:	fce7dee3          	bge	a5,a4,18c <main+0x24>
 1b4:	fe042623          	sw	zero,-20(s0)
 1b8:	0200006f          	j	1d8 <main+0x70>
 1bc:	fe842703          	lw	a4,-24(s0)
 1c0:	fec42783          	lw	a5,-20(s0)
 1c4:	40f707b3          	sub	a5,a4,a5
 1c8:	fef42423          	sw	a5,-24(s0)
 1cc:	fec42783          	lw	a5,-20(s0)
 1d0:	00178793          	addi	a5,a5,1
 1d4:	fef42623          	sw	a5,-20(s0)
 1d8:	fec42703          	lw	a4,-20(s0)
 1dc:	03200793          	li	a5,50
 1e0:	fce7dee3          	bge	a5,a4,1bc <main+0x54>
 1e4:	100007b7          	lui	a5,0x10000
 1e8:	0007a783          	lw	a5,0(a5) # 10000000 <_data>
 1ec:	fe842703          	lw	a4,-24(s0)
 1f0:	02f707b3          	mul	a5,a4,a5
 1f4:	fef42423          	sw	a5,-24(s0)
 1f8:	100007b7          	lui	a5,0x10000
 1fc:	0047a783          	lw	a5,4(a5) # 10000004 <div>
 200:	fe842703          	lw	a4,-24(s0)
 204:	02f747b3          	div	a5,a4,a5
 208:	fef42423          	sw	a5,-24(s0)
 20c:	fe842703          	lw	a4,-24(s0)
 210:	000027b7          	lui	a5,0x2
 214:	d7e78793          	addi	a5,a5,-642 # 1d7e <__stack_size+0x157e>
 218:	00f71663          	bne	a4,a5,224 <main+0xbc>
 21c:	00100d93          	li	s11,1
 220:	0080006f          	j	228 <main+0xc0>
 224:	00000d93          	li	s11,0
 228:	00000793          	li	a5,0
 22c:	00078513          	mv	a0,a5
 230:	01c12403          	lw	s0,28(sp)
 234:	02010113          	addi	sp,sp,32
 238:	00008067          	ret

0000023c <trap_handler>:
 23c:	fe010113          	addi	sp,sp,-32
 240:	00112e23          	sw	ra,28(sp)
 244:	00812c23          	sw	s0,24(sp)
 248:	02010413          	addi	s0,sp,32
 24c:	fea42623          	sw	a0,-20(s0)
 250:	00000097          	auipc	ra,0x0
 254:	000000e7          	jalr	zero # 0 <_start>
 258:	00000013          	nop
 25c:	01c12083          	lw	ra,28(sp)
 260:	01812403          	lw	s0,24(sp)
 264:	02010113          	addi	sp,sp,32
 268:	00008067          	ret

0000026c <_init>:
 26c:	ff010113          	addi	sp,sp,-16
 270:	00812623          	sw	s0,12(sp)
 274:	01010413          	addi	s0,sp,16
 278:	000007b7          	lui	a5,0x0
 27c:	06878793          	addi	a5,a5,104 # 68 <trap_entry>
 280:	30579073          	csrw	mtvec,a5
 284:	00000013          	nop
 288:	00c12403          	lw	s0,12(sp)
 28c:	01010113          	addi	sp,sp,16
 290:	00008067          	ret
