
uart_tx:     file format elf32-littleriscv


Disassembly of section .init:

00000000 <_start>:
   0:	10001197          	auipc	gp,0x10001
   4:	87018193          	addi	gp,gp,-1936 # 10000870 <__global_pointer$>
   8:	10002117          	auipc	sp,0x10002
   c:	ff810113          	addi	sp,sp,-8 # 10002000 <_sp>
  10:	00001517          	auipc	a0,0x1
  14:	81850513          	addi	a0,a0,-2024 # 828 <_data_lma>
  18:	10000597          	auipc	a1,0x10000
  1c:	fe858593          	addi	a1,a1,-24 # 10000000 <_data>
  20:	10000617          	auipc	a2,0x10000
  24:	05060613          	addi	a2,a2,80 # 10000070 <__bss_start>
  28:	00c5fc63          	bgeu	a1,a2,40 <_start+0x40>
  2c:	00052283          	lw	t0,0(a0)
  30:	0055a023          	sw	t0,0(a1)
  34:	00450513          	addi	a0,a0,4
  38:	00458593          	addi	a1,a1,4
  3c:	fec5e8e3          	bltu	a1,a2,2c <_start+0x2c>
  40:	10000517          	auipc	a0,0x10000
  44:	03050513          	addi	a0,a0,48 # 10000070 <__bss_start>
  48:	80818593          	addi	a1,gp,-2040 # 10000078 <_end>
  4c:	00b57863          	bgeu	a0,a1,5c <_start+0x5c>
  50:	00052023          	sw	zero,0(a0)
  54:	00450513          	addi	a0,a0,4
  58:	feb56ce3          	bltu	a0,a1,50 <_start+0x50>
  5c:	170000ef          	jal	ra,1cc <_init>
  60:	118000ef          	jal	ra,178 <main>

00000064 <loop>:
  64:	0000006f          	j	64 <loop>

Disassembly of section .text:

00000068 <trap_entry>:
  68:	f8010113          	addi	sp,sp,-128
  6c:	00112223          	sw	ra,4(sp)
  70:	00212423          	sw	sp,8(sp)
  74:	00312623          	sw	gp,12(sp)
  78:	00412823          	sw	tp,16(sp)
  7c:	00512a23          	sw	t0,20(sp)
  80:	00612c23          	sw	t1,24(sp)
  84:	00712e23          	sw	t2,28(sp)
  88:	02812023          	sw	s0,32(sp)
  8c:	02912223          	sw	s1,36(sp)
  90:	02a12423          	sw	a0,40(sp)
  94:	02b12623          	sw	a1,44(sp)
  98:	02c12823          	sw	a2,48(sp)
  9c:	02d12a23          	sw	a3,52(sp)
  a0:	02e12c23          	sw	a4,56(sp)
  a4:	02f12e23          	sw	a5,60(sp)
  a8:	05012023          	sw	a6,64(sp)
  ac:	05112223          	sw	a7,68(sp)
  b0:	05212423          	sw	s2,72(sp)
  b4:	05312623          	sw	s3,76(sp)
  b8:	05412823          	sw	s4,80(sp)
  bc:	05512a23          	sw	s5,84(sp)
  c0:	05612c23          	sw	s6,88(sp)
  c4:	05712e23          	sw	s7,92(sp)
  c8:	07812023          	sw	s8,96(sp)
  cc:	07912223          	sw	s9,100(sp)
  d0:	07a12423          	sw	s10,104(sp)
  d4:	07b12623          	sw	s11,108(sp)
  d8:	07c12823          	sw	t3,112(sp)
  dc:	07d12a23          	sw	t4,116(sp)
  e0:	07e12c23          	sw	t5,120(sp)
  e4:	07f12e23          	sw	t6,124(sp)
  e8:	34202573          	csrr	a0,mcause
  ec:	0b0000ef          	jal	ra,19c <trap_handler>
  f0:	00412083          	lw	ra,4(sp)
  f4:	00812103          	lw	sp,8(sp)
  f8:	00c12183          	lw	gp,12(sp)
  fc:	01012203          	lw	tp,16(sp)
 100:	01412283          	lw	t0,20(sp)
 104:	01812303          	lw	t1,24(sp)
 108:	01c12383          	lw	t2,28(sp)
 10c:	02012403          	lw	s0,32(sp)
 110:	02412483          	lw	s1,36(sp)
 114:	02812503          	lw	a0,40(sp)
 118:	02c12583          	lw	a1,44(sp)
 11c:	03012603          	lw	a2,48(sp)
 120:	03412683          	lw	a3,52(sp)
 124:	03812703          	lw	a4,56(sp)
 128:	03c12783          	lw	a5,60(sp)
 12c:	04012803          	lw	a6,64(sp)
 130:	04412883          	lw	a7,68(sp)
 134:	04812903          	lw	s2,72(sp)
 138:	04c12983          	lw	s3,76(sp)
 13c:	05012a03          	lw	s4,80(sp)
 140:	05412a83          	lw	s5,84(sp)
 144:	05812b03          	lw	s6,88(sp)
 148:	05c12b83          	lw	s7,92(sp)
 14c:	06012c03          	lw	s8,96(sp)
 150:	06412c83          	lw	s9,100(sp)
 154:	06812d03          	lw	s10,104(sp)
 158:	06c12d83          	lw	s11,108(sp)
 15c:	07012e03          	lw	t3,112(sp)
 160:	07412e83          	lw	t4,116(sp)
 164:	07812f03          	lw	t5,120(sp)
 168:	07c12f83          	lw	t6,124(sp)
 16c:	08010113          	addi	sp,sp,128
 170:	30200073          	mret
 174:	0000006f          	j	174 <trap_entry+0x10c>

00000178 <main>:
 178:	ff010113          	addi	sp,sp,-16
 17c:	00112623          	sw	ra,12(sp)
 180:	00812423          	sw	s0,8(sp)
 184:	01010413          	addi	s0,sp,16
 188:	668000ef          	jal	ra,7f0 <uart_init>
 18c:	100007b7          	lui	a5,0x10000
 190:	00078513          	mv	a0,a5
 194:	5b0000ef          	jal	ra,744 <xprintf>
 198:	0000006f          	j	198 <main+0x20>

0000019c <trap_handler>:
 19c:	fe010113          	addi	sp,sp,-32
 1a0:	00112e23          	sw	ra,28(sp)
 1a4:	00812c23          	sw	s0,24(sp)
 1a8:	02010413          	addi	s0,sp,32
 1ac:	fea42623          	sw	a0,-20(s0)
 1b0:	00000097          	auipc	ra,0x0
 1b4:	000000e7          	jalr	zero # 0 <_start>
 1b8:	00000013          	nop
 1bc:	01c12083          	lw	ra,28(sp)
 1c0:	01812403          	lw	s0,24(sp)
 1c4:	02010113          	addi	sp,sp,32
 1c8:	00008067          	ret

000001cc <_init>:
 1cc:	ff010113          	addi	sp,sp,-16
 1d0:	00812623          	sw	s0,12(sp)
 1d4:	01010413          	addi	s0,sp,16
 1d8:	000007b7          	lui	a5,0x0
 1dc:	06878793          	addi	a5,a5,104 # 68 <trap_entry>
 1e0:	30579073          	csrw	mtvec,a5
 1e4:	00000013          	nop
 1e8:	00c12403          	lw	s0,12(sp)
 1ec:	01010113          	addi	sp,sp,16
 1f0:	00008067          	ret

000001f4 <xputc>:
 1f4:	fe010113          	addi	sp,sp,-32
 1f8:	00112e23          	sw	ra,28(sp)
 1fc:	00812c23          	sw	s0,24(sp)
 200:	02010413          	addi	s0,sp,32
 204:	00050793          	mv	a5,a0
 208:	fef407a3          	sb	a5,-17(s0)
 20c:	100007b7          	lui	a5,0x10000
 210:	0707a783          	lw	a5,112(a5) # 10000070 <__bss_start>
 214:	02078263          	beqz	a5,238 <xputc+0x44>
 218:	100007b7          	lui	a5,0x10000
 21c:	0707a783          	lw	a5,112(a5) # 10000070 <__bss_start>
 220:	00178693          	addi	a3,a5,1
 224:	10000737          	lui	a4,0x10000
 228:	06d72823          	sw	a3,112(a4) # 10000070 <__bss_start>
 22c:	fef44703          	lbu	a4,-17(s0)
 230:	00e78023          	sb	a4,0(a5)
 234:	0240006f          	j	258 <xputc+0x64>
 238:	100007b7          	lui	a5,0x10000
 23c:	0747a783          	lw	a5,116(a5) # 10000074 <xfunc_out>
 240:	00078c63          	beqz	a5,258 <xputc+0x64>
 244:	100007b7          	lui	a5,0x10000
 248:	0747a703          	lw	a4,116(a5) # 10000074 <xfunc_out>
 24c:	fef44783          	lbu	a5,-17(s0)
 250:	00078513          	mv	a0,a5
 254:	000700e7          	jalr	a4
 258:	01c12083          	lw	ra,28(sp)
 25c:	01812403          	lw	s0,24(sp)
 260:	02010113          	addi	sp,sp,32
 264:	00008067          	ret

00000268 <xputs>:
 268:	fe010113          	addi	sp,sp,-32
 26c:	00112e23          	sw	ra,28(sp)
 270:	00812c23          	sw	s0,24(sp)
 274:	02010413          	addi	s0,sp,32
 278:	fea42623          	sw	a0,-20(s0)
 27c:	01c0006f          	j	298 <xputs+0x30>
 280:	fec42783          	lw	a5,-20(s0)
 284:	00178713          	addi	a4,a5,1
 288:	fee42623          	sw	a4,-20(s0)
 28c:	0007c783          	lbu	a5,0(a5)
 290:	00078513          	mv	a0,a5
 294:	f61ff0ef          	jal	ra,1f4 <xputc>
 298:	fec42783          	lw	a5,-20(s0)
 29c:	0007c783          	lbu	a5,0(a5)
 2a0:	fe0790e3          	bnez	a5,280 <xputs+0x18>
 2a4:	00000013          	nop
 2a8:	01c12083          	lw	ra,28(sp)
 2ac:	01812403          	lw	s0,24(sp)
 2b0:	02010113          	addi	sp,sp,32
 2b4:	00008067          	ret

000002b8 <xvprintf>:
 2b8:	fb010113          	addi	sp,sp,-80
 2bc:	04112623          	sw	ra,76(sp)
 2c0:	04812423          	sw	s0,72(sp)
 2c4:	05010413          	addi	s0,sp,80
 2c8:	faa42e23          	sw	a0,-68(s0)
 2cc:	fab42c23          	sw	a1,-72(s0)
 2d0:	fbc42783          	lw	a5,-68(s0)
 2d4:	00178713          	addi	a4,a5,1
 2d8:	fae42e23          	sw	a4,-68(s0)
 2dc:	0007c783          	lbu	a5,0(a5)
 2e0:	fcf40ba3          	sb	a5,-41(s0)
 2e4:	fd744783          	lbu	a5,-41(s0)
 2e8:	42078e63          	beqz	a5,724 <xvprintf+0x46c>
 2ec:	fd744703          	lbu	a4,-41(s0)
 2f0:	02500793          	li	a5,37
 2f4:	00f70a63          	beq	a4,a5,308 <xvprintf+0x50>
 2f8:	fd744783          	lbu	a5,-41(s0)
 2fc:	00078513          	mv	a0,a5
 300:	ef5ff0ef          	jal	ra,1f4 <xputc>
 304:	41c0006f          	j	720 <xvprintf+0x468>
 308:	fc042e23          	sw	zero,-36(s0)
 30c:	fbc42783          	lw	a5,-68(s0)
 310:	00178713          	addi	a4,a5,1
 314:	fae42e23          	sw	a4,-68(s0)
 318:	0007c783          	lbu	a5,0(a5)
 31c:	fcf40ba3          	sb	a5,-41(s0)
 320:	fd744703          	lbu	a4,-41(s0)
 324:	03000793          	li	a5,48
 328:	02f71263          	bne	a4,a5,34c <xvprintf+0x94>
 32c:	00100793          	li	a5,1
 330:	fcf42e23          	sw	a5,-36(s0)
 334:	fbc42783          	lw	a5,-68(s0)
 338:	00178713          	addi	a4,a5,1
 33c:	fae42e23          	sw	a4,-68(s0)
 340:	0007c783          	lbu	a5,0(a5)
 344:	fcf40ba3          	sb	a5,-41(s0)
 348:	02c0006f          	j	374 <xvprintf+0xbc>
 34c:	fd744703          	lbu	a4,-41(s0)
 350:	02d00793          	li	a5,45
 354:	02f71063          	bne	a4,a5,374 <xvprintf+0xbc>
 358:	00200793          	li	a5,2
 35c:	fcf42e23          	sw	a5,-36(s0)
 360:	fbc42783          	lw	a5,-68(s0)
 364:	00178713          	addi	a4,a5,1
 368:	fae42e23          	sw	a4,-68(s0)
 36c:	0007c783          	lbu	a5,0(a5)
 370:	fcf40ba3          	sb	a5,-41(s0)
 374:	fe042023          	sw	zero,-32(s0)
 378:	0400006f          	j	3b8 <xvprintf+0x100>
 37c:	fe042703          	lw	a4,-32(s0)
 380:	00070793          	mv	a5,a4
 384:	00279793          	slli	a5,a5,0x2
 388:	00e787b3          	add	a5,a5,a4
 38c:	00179793          	slli	a5,a5,0x1
 390:	00078713          	mv	a4,a5
 394:	fd744783          	lbu	a5,-41(s0)
 398:	00f707b3          	add	a5,a4,a5
 39c:	fd078793          	addi	a5,a5,-48
 3a0:	fef42023          	sw	a5,-32(s0)
 3a4:	fbc42783          	lw	a5,-68(s0)
 3a8:	00178713          	addi	a4,a5,1
 3ac:	fae42e23          	sw	a4,-68(s0)
 3b0:	0007c783          	lbu	a5,0(a5)
 3b4:	fcf40ba3          	sb	a5,-41(s0)
 3b8:	fd744703          	lbu	a4,-41(s0)
 3bc:	02f00793          	li	a5,47
 3c0:	00e7f863          	bgeu	a5,a4,3d0 <xvprintf+0x118>
 3c4:	fd744703          	lbu	a4,-41(s0)
 3c8:	03900793          	li	a5,57
 3cc:	fae7f8e3          	bgeu	a5,a4,37c <xvprintf+0xc4>
 3d0:	fd744703          	lbu	a4,-41(s0)
 3d4:	06c00793          	li	a5,108
 3d8:	00f70863          	beq	a4,a5,3e8 <xvprintf+0x130>
 3dc:	fd744703          	lbu	a4,-41(s0)
 3e0:	04c00793          	li	a5,76
 3e4:	02f71263          	bne	a4,a5,408 <xvprintf+0x150>
 3e8:	fdc42783          	lw	a5,-36(s0)
 3ec:	0047e793          	ori	a5,a5,4
 3f0:	fcf42e23          	sw	a5,-36(s0)
 3f4:	fbc42783          	lw	a5,-68(s0)
 3f8:	00178713          	addi	a4,a5,1
 3fc:	fae42e23          	sw	a4,-68(s0)
 400:	0007c783          	lbu	a5,0(a5)
 404:	fcf40ba3          	sb	a5,-41(s0)
 408:	fd744783          	lbu	a5,-41(s0)
 40c:	32078063          	beqz	a5,72c <xvprintf+0x474>
 410:	fd744783          	lbu	a5,-41(s0)
 414:	fcf40b23          	sb	a5,-42(s0)
 418:	fd644703          	lbu	a4,-42(s0)
 41c:	06000793          	li	a5,96
 420:	00e7f863          	bgeu	a5,a4,430 <xvprintf+0x178>
 424:	fd644783          	lbu	a5,-42(s0)
 428:	fe078793          	addi	a5,a5,-32
 42c:	fcf40b23          	sb	a5,-42(s0)
 430:	fd644783          	lbu	a5,-42(s0)
 434:	fbe78793          	addi	a5,a5,-66
 438:	01600713          	li	a4,22
 43c:	10f76063          	bltu	a4,a5,53c <xvprintf+0x284>
 440:	00279713          	slli	a4,a5,0x2
 444:	100007b7          	lui	a5,0x10000
 448:	01078793          	addi	a5,a5,16 # 10000010 <_data+0x10>
 44c:	00f707b3          	add	a5,a4,a5
 450:	0007a783          	lw	a5,0(a5)
 454:	00078067          	jr	a5
 458:	fb842783          	lw	a5,-72(s0)
 45c:	00478713          	addi	a4,a5,4
 460:	fae42c23          	sw	a4,-72(s0)
 464:	0007a783          	lw	a5,0(a5)
 468:	fcf42823          	sw	a5,-48(s0)
 46c:	fe042223          	sw	zero,-28(s0)
 470:	0100006f          	j	480 <xvprintf+0x1c8>
 474:	fe442783          	lw	a5,-28(s0)
 478:	00178793          	addi	a5,a5,1
 47c:	fef42223          	sw	a5,-28(s0)
 480:	fd042703          	lw	a4,-48(s0)
 484:	fe442783          	lw	a5,-28(s0)
 488:	00f707b3          	add	a5,a4,a5
 48c:	0007c783          	lbu	a5,0(a5)
 490:	fe0792e3          	bnez	a5,474 <xvprintf+0x1bc>
 494:	00c0006f          	j	4a0 <xvprintf+0x1e8>
 498:	02000513          	li	a0,32
 49c:	d59ff0ef          	jal	ra,1f4 <xputc>
 4a0:	fdc42783          	lw	a5,-36(s0)
 4a4:	0027f793          	andi	a5,a5,2
 4a8:	00079c63          	bnez	a5,4c0 <xvprintf+0x208>
 4ac:	fe442783          	lw	a5,-28(s0)
 4b0:	00178713          	addi	a4,a5,1
 4b4:	fee42223          	sw	a4,-28(s0)
 4b8:	fe042703          	lw	a4,-32(s0)
 4bc:	fce7eee3          	bltu	a5,a4,498 <xvprintf+0x1e0>
 4c0:	fd042503          	lw	a0,-48(s0)
 4c4:	da5ff0ef          	jal	ra,268 <xputs>
 4c8:	00c0006f          	j	4d4 <xvprintf+0x21c>
 4cc:	02000513          	li	a0,32
 4d0:	d25ff0ef          	jal	ra,1f4 <xputc>
 4d4:	fe442783          	lw	a5,-28(s0)
 4d8:	00178713          	addi	a4,a5,1
 4dc:	fee42223          	sw	a4,-28(s0)
 4e0:	fe042703          	lw	a4,-32(s0)
 4e4:	fee7e4e3          	bltu	a5,a4,4cc <xvprintf+0x214>
 4e8:	2380006f          	j	720 <xvprintf+0x468>
 4ec:	fb842783          	lw	a5,-72(s0)
 4f0:	00478713          	addi	a4,a5,4
 4f4:	fae42c23          	sw	a4,-72(s0)
 4f8:	0007a783          	lw	a5,0(a5)
 4fc:	0ff7f793          	andi	a5,a5,255
 500:	00078513          	mv	a0,a5
 504:	cf1ff0ef          	jal	ra,1f4 <xputc>
 508:	2180006f          	j	720 <xvprintf+0x468>
 50c:	00200793          	li	a5,2
 510:	fef42623          	sw	a5,-20(s0)
 514:	0380006f          	j	54c <xvprintf+0x294>
 518:	00800793          	li	a5,8
 51c:	fef42623          	sw	a5,-20(s0)
 520:	02c0006f          	j	54c <xvprintf+0x294>
 524:	00a00793          	li	a5,10
 528:	fef42623          	sw	a5,-20(s0)
 52c:	0200006f          	j	54c <xvprintf+0x294>
 530:	01000793          	li	a5,16
 534:	fef42623          	sw	a5,-20(s0)
 538:	0140006f          	j	54c <xvprintf+0x294>
 53c:	fd744783          	lbu	a5,-41(s0)
 540:	00078513          	mv	a0,a5
 544:	cb1ff0ef          	jal	ra,1f4 <xputc>
 548:	1d80006f          	j	720 <xvprintf+0x468>
 54c:	fdc42783          	lw	a5,-36(s0)
 550:	0047f793          	andi	a5,a5,4
 554:	00078c63          	beqz	a5,56c <xvprintf+0x2b4>
 558:	fb842783          	lw	a5,-72(s0)
 55c:	00478713          	addi	a4,a5,4
 560:	fae42c23          	sw	a4,-72(s0)
 564:	0007a783          	lw	a5,0(a5)
 568:	0340006f          	j	59c <xvprintf+0x2e4>
 56c:	fd644703          	lbu	a4,-42(s0)
 570:	04400793          	li	a5,68
 574:	00f71c63          	bne	a4,a5,58c <xvprintf+0x2d4>
 578:	fb842783          	lw	a5,-72(s0)
 57c:	00478713          	addi	a4,a5,4
 580:	fae42c23          	sw	a4,-72(s0)
 584:	0007a783          	lw	a5,0(a5)
 588:	0140006f          	j	59c <xvprintf+0x2e4>
 58c:	fb842783          	lw	a5,-72(s0)
 590:	00478713          	addi	a4,a5,4
 594:	fae42c23          	sw	a4,-72(s0)
 598:	0007a783          	lw	a5,0(a5)
 59c:	fcf42c23          	sw	a5,-40(s0)
 5a0:	fd644703          	lbu	a4,-42(s0)
 5a4:	04400793          	li	a5,68
 5a8:	02f71263          	bne	a4,a5,5cc <xvprintf+0x314>
 5ac:	fd842783          	lw	a5,-40(s0)
 5b0:	0007de63          	bgez	a5,5cc <xvprintf+0x314>
 5b4:	fd842783          	lw	a5,-40(s0)
 5b8:	40f007b3          	neg	a5,a5
 5bc:	fcf42c23          	sw	a5,-40(s0)
 5c0:	fdc42783          	lw	a5,-36(s0)
 5c4:	0087e793          	ori	a5,a5,8
 5c8:	fcf42e23          	sw	a5,-36(s0)
 5cc:	fe042423          	sw	zero,-24(s0)
 5d0:	fd842703          	lw	a4,-40(s0)
 5d4:	fec42783          	lw	a5,-20(s0)
 5d8:	02f777b3          	remu	a5,a4,a5
 5dc:	fcf40b23          	sb	a5,-42(s0)
 5e0:	fd842703          	lw	a4,-40(s0)
 5e4:	fec42783          	lw	a5,-20(s0)
 5e8:	02f757b3          	divu	a5,a4,a5
 5ec:	fcf42c23          	sw	a5,-40(s0)
 5f0:	fd644703          	lbu	a4,-42(s0)
 5f4:	00900793          	li	a5,9
 5f8:	02e7f463          	bgeu	a5,a4,620 <xvprintf+0x368>
 5fc:	fd744703          	lbu	a4,-41(s0)
 600:	07800793          	li	a5,120
 604:	00f71663          	bne	a4,a5,610 <xvprintf+0x358>
 608:	02700793          	li	a5,39
 60c:	0080006f          	j	614 <xvprintf+0x35c>
 610:	00700793          	li	a5,7
 614:	fd644703          	lbu	a4,-42(s0)
 618:	00e787b3          	add	a5,a5,a4
 61c:	fcf40b23          	sb	a5,-42(s0)
 620:	fe842783          	lw	a5,-24(s0)
 624:	00178713          	addi	a4,a5,1
 628:	fee42423          	sw	a4,-24(s0)
 62c:	fd644703          	lbu	a4,-42(s0)
 630:	03070713          	addi	a4,a4,48
 634:	0ff77713          	andi	a4,a4,255
 638:	ff040693          	addi	a3,s0,-16
 63c:	00f687b3          	add	a5,a3,a5
 640:	fce78823          	sb	a4,-48(a5)
 644:	fd842783          	lw	a5,-40(s0)
 648:	00078863          	beqz	a5,658 <xvprintf+0x3a0>
 64c:	fe842703          	lw	a4,-24(s0)
 650:	00f00793          	li	a5,15
 654:	f6e7fee3          	bgeu	a5,a4,5d0 <xvprintf+0x318>
 658:	fdc42783          	lw	a5,-36(s0)
 65c:	0087f793          	andi	a5,a5,8
 660:	02078063          	beqz	a5,680 <xvprintf+0x3c8>
 664:	fe842783          	lw	a5,-24(s0)
 668:	00178713          	addi	a4,a5,1
 66c:	fee42423          	sw	a4,-24(s0)
 670:	ff040713          	addi	a4,s0,-16
 674:	00f707b3          	add	a5,a4,a5
 678:	02d00713          	li	a4,45
 67c:	fce78823          	sb	a4,-48(a5)
 680:	fe842783          	lw	a5,-24(s0)
 684:	fef42223          	sw	a5,-28(s0)
 688:	fdc42783          	lw	a5,-36(s0)
 68c:	0017f793          	andi	a5,a5,1
 690:	00078663          	beqz	a5,69c <xvprintf+0x3e4>
 694:	03000793          	li	a5,48
 698:	0080006f          	j	6a0 <xvprintf+0x3e8>
 69c:	02000793          	li	a5,32
 6a0:	fcf40b23          	sb	a5,-42(s0)
 6a4:	0100006f          	j	6b4 <xvprintf+0x3fc>
 6a8:	fd644783          	lbu	a5,-42(s0)
 6ac:	00078513          	mv	a0,a5
 6b0:	b45ff0ef          	jal	ra,1f4 <xputc>
 6b4:	fdc42783          	lw	a5,-36(s0)
 6b8:	0027f793          	andi	a5,a5,2
 6bc:	00079c63          	bnez	a5,6d4 <xvprintf+0x41c>
 6c0:	fe442783          	lw	a5,-28(s0)
 6c4:	00178713          	addi	a4,a5,1
 6c8:	fee42223          	sw	a4,-28(s0)
 6cc:	fe042703          	lw	a4,-32(s0)
 6d0:	fce7ece3          	bltu	a5,a4,6a8 <xvprintf+0x3f0>
 6d4:	fe842783          	lw	a5,-24(s0)
 6d8:	fff78793          	addi	a5,a5,-1
 6dc:	fef42423          	sw	a5,-24(s0)
 6e0:	fe842783          	lw	a5,-24(s0)
 6e4:	ff040713          	addi	a4,s0,-16
 6e8:	00f707b3          	add	a5,a4,a5
 6ec:	fd07c783          	lbu	a5,-48(a5)
 6f0:	00078513          	mv	a0,a5
 6f4:	b01ff0ef          	jal	ra,1f4 <xputc>
 6f8:	fe842783          	lw	a5,-24(s0)
 6fc:	fc079ce3          	bnez	a5,6d4 <xvprintf+0x41c>
 700:	00c0006f          	j	70c <xvprintf+0x454>
 704:	02000513          	li	a0,32
 708:	aedff0ef          	jal	ra,1f4 <xputc>
 70c:	fe442783          	lw	a5,-28(s0)
 710:	00178713          	addi	a4,a5,1
 714:	fee42223          	sw	a4,-28(s0)
 718:	fe042703          	lw	a4,-32(s0)
 71c:	fee7e4e3          	bltu	a5,a4,704 <xvprintf+0x44c>
 720:	bb1ff06f          	j	2d0 <xvprintf+0x18>
 724:	00000013          	nop
 728:	0080006f          	j	730 <xvprintf+0x478>
 72c:	00000013          	nop
 730:	00000013          	nop
 734:	04c12083          	lw	ra,76(sp)
 738:	04812403          	lw	s0,72(sp)
 73c:	05010113          	addi	sp,sp,80
 740:	00008067          	ret

00000744 <xprintf>:
 744:	fb010113          	addi	sp,sp,-80
 748:	02112623          	sw	ra,44(sp)
 74c:	02812423          	sw	s0,40(sp)
 750:	03010413          	addi	s0,sp,48
 754:	fca42e23          	sw	a0,-36(s0)
 758:	00b42223          	sw	a1,4(s0)
 75c:	00c42423          	sw	a2,8(s0)
 760:	00d42623          	sw	a3,12(s0)
 764:	00e42823          	sw	a4,16(s0)
 768:	00f42a23          	sw	a5,20(s0)
 76c:	01042c23          	sw	a6,24(s0)
 770:	01142e23          	sw	a7,28(s0)
 774:	02040793          	addi	a5,s0,32
 778:	fe478793          	addi	a5,a5,-28
 77c:	fef42623          	sw	a5,-20(s0)
 780:	fec42783          	lw	a5,-20(s0)
 784:	00078593          	mv	a1,a5
 788:	fdc42503          	lw	a0,-36(s0)
 78c:	b2dff0ef          	jal	ra,2b8 <xvprintf>
 790:	00000013          	nop
 794:	02c12083          	lw	ra,44(sp)
 798:	02812403          	lw	s0,40(sp)
 79c:	05010113          	addi	sp,sp,80
 7a0:	00008067          	ret

000007a4 <uart_putc>:
 7a4:	fe010113          	addi	sp,sp,-32
 7a8:	00812e23          	sw	s0,28(sp)
 7ac:	02010413          	addi	s0,sp,32
 7b0:	00050793          	mv	a5,a0
 7b4:	fef407a3          	sb	a5,-17(s0)
 7b8:	00000013          	nop
 7bc:	300007b7          	lui	a5,0x30000
 7c0:	00478793          	addi	a5,a5,4 # 30000004 <_sp+0x1fffe004>
 7c4:	0007a783          	lw	a5,0(a5)
 7c8:	0017f793          	andi	a5,a5,1
 7cc:	fe0798e3          	bnez	a5,7bc <uart_putc+0x18>
 7d0:	300007b7          	lui	a5,0x30000
 7d4:	00c78793          	addi	a5,a5,12 # 3000000c <_sp+0x1fffe00c>
 7d8:	fef44703          	lbu	a4,-17(s0)
 7dc:	00e7a023          	sw	a4,0(a5)
 7e0:	00000013          	nop
 7e4:	01c12403          	lw	s0,28(sp)
 7e8:	02010113          	addi	sp,sp,32
 7ec:	00008067          	ret

000007f0 <uart_init>:
 7f0:	ff010113          	addi	sp,sp,-16
 7f4:	00812623          	sw	s0,12(sp)
 7f8:	01010413          	addi	s0,sp,16
 7fc:	300007b7          	lui	a5,0x30000
 800:	00100713          	li	a4,1
 804:	00e7a023          	sw	a4,0(a5) # 30000000 <_sp+0x1fffe000>
 808:	100007b7          	lui	a5,0x10000
 80c:	00000737          	lui	a4,0x0
 810:	7a470713          	addi	a4,a4,1956 # 7a4 <uart_putc>
 814:	06e7aa23          	sw	a4,116(a5) # 10000074 <xfunc_out>
 818:	00000013          	nop
 81c:	00c12403          	lw	s0,12(sp)
 820:	01010113          	addi	sp,sp,16
 824:	00008067          	ret
